target datalayout = "e-m:e-p270:32:32-p271:32:32-p272:64:64-i64:64-i128:128-f80:128-n8:16:32:64-S128"
target triple = "x86_64-pc-linux-gnu"

%struct.WOFF_TableRec_ = type { i32, i64, i64, i64, i64, i64 }

; Function Attrs: nounwind uwtable
define internal i32 @compare_offsets(ptr noundef %0, ptr noundef %1) #0 {
  %3 = alloca i32, align 4
  %4 = alloca ptr, align 8
  %5 = alloca ptr, align 8
  %6 = alloca ptr, align 8
  %7 = alloca ptr, align 8
  %8 = alloca i64, align 8
  %9 = alloca i64, align 8
  store ptr %0, ptr %4, align 8
  store ptr %1, ptr %5, align 8
  %10 = load ptr, ptr %4, align 8
  %11 = load ptr, ptr %10, align 8
  store ptr %11, ptr %6, align 8
  %12 = load ptr, ptr %5, align 8
  %13 = load ptr, ptr %12, align 8
  store ptr %13, ptr %7, align 8
  %14 = load ptr, ptr %6, align 8
  %15 = getelementptr inbounds %struct.WOFF_TableRec_, ptr %14, i32 0, i32 1
  %16 = load i64, ptr %15, align 8
  store i64 %16, ptr %8, align 8
  %17 = load ptr, ptr %7, align 8
  %18 = getelementptr inbounds %struct.WOFF_TableRec_, ptr %17, i32 0, i32 1
  %19 = load i64, ptr %18, align 8
  store i64 %19, ptr %9, align 8
  %20 = load i64, ptr %8, align 8
  %21 = load i64, ptr %9, align 8
  %22 = icmp ugt i64 %20, %21
  br i1 %22, label %23, label %24

23:                                               ; preds = %2
  store i32 1, ptr %3, align 4
  br label %30

24:                                               ; preds = %2
  %25 = load i64, ptr %8, align 8
  %26 = load i64, ptr %9, align 8
  %27 = icmp ult i64 %25, %26
  br i1 %27, label %28, label %29

28:                                               ; preds = %24
  store i32 -1, ptr %3, align 4
  br label %30

29:                                               ; preds = %24
  store i32 0, ptr %3, align 4
  br label %30

30:                                               ; preds = %29, %28, %23
  %31 = load i32, ptr %3, align 4
  ret i32 %31
}