; Function Attrs: mustprogress nofree norecurse nosync nounwind willreturn memory(read, inaccessiblemem: none) uwtable
define internal range(i32 -1, 2) i32 @compare_offsets(ptr nocapture noundef readonly %0, ptr nocapture noundef readonly %1) #2 {
  %3 = load ptr, ptr %0, align 8
  %4 = load ptr, ptr %1, align 8
  %5 = getelementptr inbounds i8, ptr %3, i64 8
  %6 = load i64, ptr %5, align 8
  %7 = getelementptr inbounds i8, ptr %4, i64 8
  %8 = load i64, ptr %7, align 8
  %9 = icmp ugt i64 %6, %8
  %10 = icmp ult i64 %6, %8
  %. = sext i1 %10 to i32
  %.0 = select i1 %9, i32 1, i32 %.
  ret i32 %.0
}